; Function Attrs: mustprogress uwtable
define hidden noundef ptr @_Z7or_elseP6tacticS0_S0_S0_S0_S0_S0_(ptr noundef %t1, ptr noundef %t2, ptr noundef %t3, ptr noundef %t4, ptr noundef %t5, ptr noundef %t6, ptr noundef %t7) local_unnamed_addr #3 personality ptr @__gxx_personality_v0 {
entry:
  %ts = alloca [7 x ptr], align 16
  store ptr %t1, ptr %ts, align 16
  %arrayinit.element = getelementptr inbounds i8, ptr %ts, i64 8
  store ptr %t2, ptr %arrayinit.element, align 8
  %arrayinit.element1 = getelementptr inbounds i8, ptr %ts, i64 16
  store ptr %t3, ptr %arrayinit.element1, align 16
  %arrayinit.element2 = getelementptr inbounds i8, ptr %ts, i64 24
  store ptr %t4, ptr %arrayinit.element2, align 8
  %arrayinit.element3 = getelementptr inbounds i8, ptr %ts, i64 32
  store ptr %t5, ptr %arrayinit.element3, align 16
  %arrayinit.element4 = getelementptr inbounds i8, ptr %ts, i64 40
  store ptr %t6, ptr %arrayinit.element4, align 8
  %arrayinit.element5 = getelementptr inbounds i8, ptr %ts, i64 48
  store ptr %t7, ptr %arrayinit.element5, align 16
  %call.i = tail call noalias noundef ptr @_ZN6memory8allocateEm(i64 noundef 24)
  %m_ref_count.i.i.i.i = getelementptr inbounds i8, ptr %call.i, i64 8
  store i32 0, ptr %m_ref_count.i.i.i.i, align 8
  store ptr getelementptr inbounds ({ [25 x ptr] }, ptr @_ZTV13nary_tactical, i64 0, i32 0, i64 2), ptr %call.i, align 8
  %m_ts.i.i.i = getelementptr inbounds i8, ptr %call.i, i64 16
  store ptr null, ptr %m_ts.i.i.i, align 8
  br label %for.body.i.i.i

for.body.i.i.i:                                   ; preds = %for.inc.i.i.i, %entry
  %indvars.iv.i.i.i = phi i64 [ 0, %entry ], [ %indvars.iv.next.i.i.i, %for.inc.i.i.i ]
  %arrayidx.i.i.i = getelementptr inbounds ptr, ptr %ts, i64 %indvars.iv.i.i.i
  %0 = load ptr, ptr %arrayidx.i.i.i, align 8
  %tobool.not.i.i.i.i.i.i = icmp eq ptr %0, null
  br i1 %tobool.not.i.i.i.i.i.i, label %_ZN15ref_vector_coreI6tactic21ref_unmanaged_wrapperIS0_EE7inc_refEPS0_.exit.i.i.i.i, label %if.then.i.i.i.i.i.i

if.then.i.i.i.i.i.i:                              ; preds = %for.body.i.i.i
  %m_ref_count.i.i.i.i.i.i.i = getelementptr inbounds i8, ptr %0, i64 8
  %1 = load i32, ptr %m_ref_count.i.i.i.i.i.i.i, align 8
  %inc.i.i.i.i.i.i.i = add i32 %1, 1
  store i32 %inc.i.i.i.i.i.i.i, ptr %m_ref_count.i.i.i.i.i.i.i, align 8
  br label %_ZN15ref_vector_coreI6tactic21ref_unmanaged_wrapperIS0_EE7inc_refEPS0_.exit.i.i.i.i

_ZN15ref_vector_coreI6tactic21ref_unmanaged_wrapperIS0_EE7inc_refEPS0_.exit.i.i.i.i: ; preds = %if.then.i.i.i.i.i.i, %for.body.i.i.i
  %2 = load ptr, ptr %m_ts.i.i.i, align 8
  %cmp.i.i.i.i.i = icmp eq ptr %2, null
  br i1 %cmp.i.i.i.i.i, label %if.then.i.i.i.i.i, label %lor.lhs.false.i.i.i.i.i

lor.lhs.false.i.i.i.i.i:                          ; preds = %_ZN15ref_vector_coreI6tactic21ref_unmanaged_wrapperIS0_EE7inc_refEPS0_.exit.i.i.i.i
  %arrayidx.i.i.i.i.i = getelementptr inbounds i8, ptr %2, i64 -4
  %3 = load i32, ptr %arrayidx.i.i.i.i.i, align 4
  %arrayidx4.i.i.i.i.i = getelementptr inbounds i8, ptr %2, i64 -8
  %4 = load i32, ptr %arrayidx4.i.i.i.i.i, align 4
  %cmp5.i.i.i.i.i = icmp eq i32 %3, %4
  br i1 %cmp5.i.i.i.i.i, label %if.then.i.i.i.i.i, label %for.inc.i.i.i

if.then.i.i.i.i.i:                                ; preds = %lor.lhs.false.i.i.i.i.i, %_ZN15ref_vector_coreI6tactic21ref_unmanaged_wrapperIS0_EE7inc_refEPS0_.exit.i.i.i.i
  invoke void @_ZN6vectorIP6tacticLb0EjE13expand_vectorEv(ptr noundef nonnull align 8 dereferenceable(8) %m_ts.i.i.i)
          to label %.noexc.i.i.i unwind label %lpad3.i.i.i

.noexc.i.i.i:                                     ; preds = %if.then.i.i.i.i.i
  %.pre.i.i.i.i.i = load ptr, ptr %m_ts.i.i.i, align 8
  %arrayidx8.phi.trans.insert.i.i.i.i.i = getelementptr inbounds i8, ptr %.pre.i.i.i.i.i, i64 -4
  %.pre1.i.i.i.i.i = load i32, ptr %arrayidx8.phi.trans.insert.i.i.i.i.i, align 4
  br label %for.inc.i.i.i

for.inc.i.i.i:                                    ; preds = %.noexc.i.i.i, %lor.lhs.false.i.i.i.i.i
  %5 = phi i32 [ %.pre1.i.i.i.i.i, %.noexc.i.i.i ], [ %3, %lor.lhs.false.i.i.i.i.i ]
  %6 = phi ptr [ %.pre.i.i.i.i.i, %.noexc.i.i.i ], [ %2, %lor.lhs.false.i.i.i.i.i ]
  %idx.ext.i.i.i.i.i = zext i32 %5 to i64
  %add.ptr.i.i.i.i.i = getelementptr inbounds ptr, ptr %6, i64 %idx.ext.i.i.i.i.i
  store ptr %0, ptr %add.ptr.i.i.i.i.i, align 8
  %7 = load ptr, ptr %m_ts.i.i.i, align 8
  %arrayidx10.i.i.i.i.i = getelementptr inbounds i8, ptr %7, i64 -4
  %8 = load i32, ptr %arrayidx10.i.i.i.i.i, align 4
  %inc.i.i.i.i.i = add i32 %8, 1
  store i32 %inc.i.i.i.i.i, ptr %arrayidx10.i.i.i.i.i, align 4
  %indvars.iv.next.i.i.i = add nuw nsw i64 %indvars.iv.i.i.i, 1
  %exitcond.not.i.i.i = icmp eq i64 %indvars.iv.next.i.i.i, 7
  br i1 %exitcond.not.i.i.i, label %_Z7or_elsejPKP6tactic.exit, label %for.body.i.i.i, !llvm.loop !6

lpad3.i.i.i:                                      ; preds = %if.then.i.i.i.i.i
  %9 = landingpad { ptr, i32 }
          cleanup
  tail call void @_ZN15ref_vector_coreI6tactic21ref_unmanaged_wrapperIS0_EED2Ev(ptr noundef nonnull align 8 dereferenceable(8) %m_ts.i.i.i) #16
  resume { ptr, i32 } %9

_Z7or_elsejPKP6tactic.exit:                       ; preds = %for.inc.i.i.i
  store ptr getelementptr inbounds ({ [25 x ptr] }, ptr @_ZTV16or_else_tactical, i64 0, i32 0, i64 2), ptr %call.i, align 8
  ret ptr %call.i
}